; ModuleID = 'bench/openjdk/original/mlib_c_ImageConv_f.ll'
source_filename = "bench/openjdk/original/mlib_c_ImageConv_f.ll"
target datalayout = "e-m:e-p270:32:32-p271:32:32-p272:64:64-i64:64-i128:128-f80:128-n8:16:32:64-S128"
target triple = "x86_64-pc-linux-gnu"

; Function Attrs: nounwind uwtable
define hidden i32 @mlib_convMxNnw_u8(ptr noundef %0, ptr noundef %1, ptr noundef %2, i32 noundef %3, i32 noundef %4, i32 noundef %5, i32 noundef %6, i32 noundef %7, i32 noundef %8) local_unnamed_addr #0 {
  %10 = tail call i32 @mlib_ImageConvVersion(i32 noundef %3, i32 noundef %4, i32 noundef %7, i32 noundef 1) #2
  %11 = icmp eq i32 %10, 0
  br i1 %11, label %12, label %14

12:                                               ; preds = %9
  %13 = tail call i32 @mlib_c_convMxNnw_u8(ptr noundef %0, ptr noundef %1, ptr noundef %2, i32 noundef %3, i32 noundef %4, i32 noundef %5, i32 noundef %6, i32 noundef %7, i32 noundef %8) #2
  br label %16

14:                                               ; preds = %9
  %15 = tail call i32 @mlib_i_convMxNnw_u8(ptr noundef %0, ptr noundef %1, ptr noundef %2, i32 noundef %3, i32 noundef %4, i32 noundef %5, i32 noundef %6, i32 noundef %7, i32 noundef %8) #2
  br label %16

16:                                               ; preds = %14, %12
  %.0 = phi i32 [ %13, %12 ], [ %15, %14 ]
  ret i32 %.0
}

declare i32 @mlib_ImageConvVersion(i32 noundef, i32 noundef, i32 noundef, i32 noundef) local_unnamed_addr #1

declare i32 @mlib_c_convMxNnw_u8(ptr noundef, ptr noundef, ptr noundef, i32 noundef, i32 noundef, i32 noundef, i32 noundef, i32 noundef, i32 noundef) local_unnamed_addr #1

declare i32 @mlib_i_convMxNnw_u8(ptr noundef, ptr noundef, ptr noundef, i32 noundef, i32 noundef, i32 noundef, i32 noundef, i32 noundef, i32 noundef) local_unnamed_addr #1

; Function Attrs: nounwind uwtable
define hidden i32 @mlib_convMxNext_u8(ptr noundef %0, ptr noundef %1, ptr noundef %2, i32 noundef %3, i32 noundef %4, i32 noundef %5, i32 noundef %6, i32 noundef %7, i32 noundef %8, i32 noundef %9, i32 noundef %10) local_unnamed_addr #0 {
  %12 = tail call i32 @mlib_ImageConvVersion(i32 noundef %3, i32 noundef %4, i32 noundef %9, i32 noundef 1) #2
  %13 = icmp eq i32 %12, 0
  br i1 %13, label %14, label %16

14:                                               ; preds = %11
  %15 = tail call i32 @mlib_c_convMxNext_u8(ptr noundef %0, ptr noundef %1, ptr noundef %2, i32 noundef %3, i32 noundef %4, i32 noundef %5, i32 noundef %6, i32 noundef %7, i32 noundef %8, i32 noundef %9, i32 noundef %10) #2
  br label %18

16:                                               ; preds = %11
  %17 = tail call i32 @mlib_i_convMxNext_u8(ptr noundef %0, ptr noundef %1, ptr noundef %2, i32 noundef %3, i32 noundef %4, i32 noundef %5, i32 noundef %6, i32 noundef %7, i32 noundef %8, i32 noundef %9, i32 noundef %10) #2
  br label %18

18:                                               ; preds = %16, %14
  %.0 = phi i32 [ %15, %14 ], [ %17, %16 ]
  ret i32 %.0
}

declare i32 @mlib_c_convMxNext_u8(ptr noundef, ptr noundef, ptr noundef, i32 noundef, i32 noundef, i32 noundef, i32 noundef, i32 noundef, i32 noundef, i32 noundef, i32 noundef) local_unnamed_addr #1

declare i32 @mlib_i_convMxNext_u8(ptr noundef, ptr noundef, ptr noundef, i32 noundef, i32 noundef, i32 noundef, i32 noundef, i32 noundef, i32 noundef, i32 noundef, i32 noundef) local_unnamed_addr #1


!llvm.module.flags = !{!0, !1, !2, !3, !4, !5}

!0 = !{i32 7, !"Dwarf Version", i32 5}
!1 = !{i32 2, !"Debug Info Version", i32 3}
!2 = !{i32 1, !"wchar_size", i32 4}
!3 = !{i32 8, !"PIC Level", i32 2}
!4 = !{i32 7, !"uwtable", i32 2}
!5 = !{i32 7, !"frame-pointer", i32 2}
